target datalayout = "e-m:e-p270:32:32-p271:32:32-p272:64:64-i64:64-i128:128-f80:128-n8:16:32:64-S128"
target triple = "x86_64-pc-linux-gnu"

@fForceZero = internal global i32 0, align 4

; Function Attrs: nounwind uwtable
define internal i32 @Abc_LitNot(i32 noundef %0) #0 {
  %2 = alloca i32, align 4
  store i32 %0, ptr %2, align 4
  %3 = load i32, ptr %2, align 4
  %4 = xor i32 %3, 1
  ret i32 %4
}

; Function Attrs: nounwind uwtable
define void @Gia_ManDualMux(ptr noundef %0, ptr noundef %1, ptr noundef %2, ptr noundef %3, ptr noundef %4) #0 {
  %6 = alloca ptr, align 8
  %7 = alloca ptr, align 8
  %8 = alloca ptr, align 8
  %9 = alloca ptr, align 8
  %10 = alloca ptr, align 8
  %11 = alloca i32, align 4
  %12 = alloca i32, align 4
  %13 = alloca i32, align 4
  %14 = alloca i32, align 4
  store ptr %0, ptr %6, align 8
  store ptr %1, ptr %7, align 8
  store ptr %2, ptr %8, align 8
  store ptr %3, ptr %9, align 8
  store ptr %4, ptr %10, align 8
  %15 = load ptr, ptr %6, align 8
  %16 = load ptr, ptr %8, align 8
  %17 = getelementptr inbounds i32, ptr %16, i64 0
  %18 = load i32, ptr %17, align 4
  %19 = call i32 @Abc_LitNot(i32 noundef %18)
  %20 = load ptr, ptr %9, align 8
  %21 = getelementptr inbounds i32, ptr %20, i64 0
  %22 = load i32, ptr %21, align 4
  %23 = call i32 @Gia_ManHashXor(ptr noundef %15, i32 noundef %19, i32 noundef %22)
  store i32 %23, ptr %11, align 4
  %24 = load ptr, ptr %6, align 8
  %25 = load ptr, ptr %8, align 8
  %26 = getelementptr inbounds i32, ptr %25, i64 1
  %27 = load i32, ptr %26, align 4
  %28 = call i32 @Abc_LitNot(i32 noundef %27)
  %29 = load ptr, ptr %9, align 8
  %30 = getelementptr inbounds i32, ptr %29, i64 1
  %31 = load i32, ptr %30, align 4
  %32 = call i32 @Abc_LitNot(i32 noundef %31)
  %33 = call i32 @Gia_ManHashAnd(ptr noundef %24, i32 noundef %28, i32 noundef %32)
  store i32 %33, ptr %12, align 4
  %34 = load ptr, ptr %6, align 8
  %35 = load i32, ptr %12, align 4
  %36 = load i32, ptr %11, align 4
  %37 = call i32 @Gia_ManHashAnd(ptr noundef %34, i32 noundef %35, i32 noundef %36)
  %38 = call i32 @Abc_LitNot(i32 noundef %37)
  store i32 %38, ptr %13, align 4
  %39 = load ptr, ptr %6, align 8
  %40 = load ptr, ptr %7, align 8
  %41 = getelementptr inbounds i32, ptr %40, i64 0
  %42 = load i32, ptr %41, align 4
  %43 = load ptr, ptr %8, align 8
  %44 = getelementptr inbounds i32, ptr %43, i64 1
  %45 = load i32, ptr %44, align 4
  %46 = load ptr, ptr %9, align 8
  %47 = getelementptr inbounds i32, ptr %46, i64 1
  %48 = load i32, ptr %47, align 4
  %49 = call i32 @Gia_ManHashMux(ptr noundef %39, i32 noundef %42, i32 noundef %45, i32 noundef %48)
  store i32 %49, ptr %14, align 4
  %50 = load ptr, ptr %6, align 8
  %51 = load ptr, ptr %7, align 8
  %52 = getelementptr inbounds i32, ptr %51, i64 0
  %53 = load i32, ptr %52, align 4
  %54 = load ptr, ptr %8, align 8
  %55 = getelementptr inbounds i32, ptr %54, i64 0
  %56 = load i32, ptr %55, align 4
  %57 = load ptr, ptr %9, align 8
  %58 = getelementptr inbounds i32, ptr %57, i64 0
  %59 = load i32, ptr %58, align 4
  %60 = call i32 @Gia_ManHashMux(ptr noundef %50, i32 noundef %53, i32 noundef %56, i32 noundef %59)
  %61 = load ptr, ptr %10, align 8
  %62 = getelementptr inbounds i32, ptr %61, i64 0
  store i32 %60, ptr %62, align 4
  %63 = load ptr, ptr %6, align 8
  %64 = load ptr, ptr %7, align 8
  %65 = getelementptr inbounds i32, ptr %64, i64 1
  %66 = load i32, ptr %65, align 4
  %67 = load i32, ptr %13, align 4
  %68 = load i32, ptr %14, align 4
  %69 = call i32 @Gia_ManHashMux(ptr noundef %63, i32 noundef %66, i32 noundef %67, i32 noundef %68)
  %70 = load ptr, ptr %10, align 8
  %71 = getelementptr inbounds i32, ptr %70, i64 1
  store i32 %69, ptr %71, align 4
  %72 = load i32, ptr @fForceZero, align 4
  %73 = icmp ne i32 %72, 0
  br i1 %73, label %74, label %86

74:                                               ; preds = %5
  %75 = load ptr, ptr %6, align 8
  %76 = load ptr, ptr %10, align 8
  %77 = getelementptr inbounds i32, ptr %76, i64 0
  %78 = load i32, ptr %77, align 4
  %79 = load ptr, ptr %10, align 8
  %80 = getelementptr inbounds i32, ptr %79, i64 1
  %81 = load i32, ptr %80, align 4
  %82 = call i32 @Abc_LitNot(i32 noundef %81)
  %83 = call i32 @Gia_ManHashAnd(ptr noundef %75, i32 noundef %78, i32 noundef %82)
  %84 = load ptr, ptr %10, align 8
  %85 = getelementptr inbounds i32, ptr %84, i64 0
  store i32 %83, ptr %85, align 4
  br label %86

86:                                               ; preds = %74, %5
  ret void
}