; Function Attrs: nounwind uwtable
define void @Gia_ManDualMux(ptr noundef %0, ptr noundef readonly captures(none) %1, ptr noundef readonly captures(none) %2, ptr noundef readonly captures(none) %3, ptr noundef writeonly captures(none) initializes((0, 8)) %4) local_unnamed_addr #0 {
  %6 = load i32, ptr %2, align 4
  %7 = xor i32 %6, 1
  %8 = load i32, ptr %3, align 4
  %9 = tail call i32 @Gia_ManHashXor(ptr noundef %0, i32 noundef %7, i32 noundef %8) #18
  %10 = getelementptr inbounds nuw i8, ptr %2, i64 4
  %11 = load i32, ptr %10, align 4
  %12 = xor i32 %11, 1
  %13 = getelementptr inbounds nuw i8, ptr %3, i64 4
  %14 = load i32, ptr %13, align 4
  %15 = xor i32 %14, 1
  %16 = tail call i32 @Gia_ManHashAnd(ptr noundef %0, i32 noundef %12, i32 noundef %15) #18
  %17 = tail call i32 @Gia_ManHashAnd(ptr noundef %0, i32 noundef %16, i32 noundef %9) #18
  %18 = xor i32 %17, 1
  %19 = load i32, ptr %1, align 4
  %20 = load i32, ptr %10, align 4
  %21 = load i32, ptr %13, align 4
  %22 = tail call i32 @Gia_ManHashMux(ptr noundef %0, i32 noundef %19, i32 noundef %20, i32 noundef %21) #18
  %23 = load i32, ptr %1, align 4
  %24 = load i32, ptr %2, align 4
  %25 = load i32, ptr %3, align 4
  %26 = tail call i32 @Gia_ManHashMux(ptr noundef %0, i32 noundef %23, i32 noundef %24, i32 noundef %25) #18
  store i32 %26, ptr %4, align 4
  %27 = getelementptr inbounds nuw i8, ptr %1, i64 4
  %28 = load i32, ptr %27, align 4
  %29 = tail call i32 @Gia_ManHashMux(ptr noundef %0, i32 noundef %28, i32 noundef %18, i32 noundef %22) #18
  %30 = getelementptr inbounds nuw i8, ptr %4, i64 4
  store i32 %29, ptr %30, align 4
  ret void
}